target datalayout = "e-m:e-p270:32:32-p271:32:32-p272:64:64-i64:64-i128:128-f80:128-n8:16:32:64-S128"
target triple = "x86_64-pc-linux-gnu"

@hf_zbee_zcl_rssi_location_coordinate1 = internal global i32 0, align 4
@hf_zbee_zcl_rssi_location_coordinate2 = internal global i32 0, align 4
@hf_zbee_zcl_rssi_location_coordinate3 = internal global i32 0, align 4
@hf_zbee_zcl_rssi_location_anchor_node_add = internal global i32 0, align 4

; Function Attrs: null_pointer_is_valid sspstrong uwtable
define internal void @dissect_zcl_rssi_location_anchor_node_announce(ptr noundef %0, ptr noundef %1, ptr noundef %2) #0 {
  %4 = alloca ptr, align 8
  %5 = alloca ptr, align 8
  %6 = alloca ptr, align 8
  store ptr %0, ptr %4, align 8
  store ptr %1, ptr %5, align 8
  store ptr %2, ptr %6, align 8
  %7 = load ptr, ptr %5, align 8
  %8 = load i32, ptr @hf_zbee_zcl_rssi_location_anchor_node_add, align 4
  %9 = load ptr, ptr %4, align 8
  %10 = load ptr, ptr %6, align 8
  %11 = load i32, ptr %10, align 4
  %12 = call ptr @proto_tree_add_item(ptr noundef %7, i32 noundef %8, ptr noundef %9, i32 noundef %11, i32 noundef 8, i32 noundef -2147483648)
  %13 = load ptr, ptr %6, align 8
  %14 = load i32, ptr %13, align 4
  %15 = add i32 %14, 8
  store i32 %15, ptr %13, align 4
  %16 = load ptr, ptr %5, align 8
  %17 = load i32, ptr @hf_zbee_zcl_rssi_location_coordinate1, align 4
  %18 = load ptr, ptr %4, align 8
  %19 = load ptr, ptr %6, align 8
  %20 = load i32, ptr %19, align 4
  %21 = call ptr @proto_tree_add_item(ptr noundef %16, i32 noundef %17, ptr noundef %18, i32 noundef %20, i32 noundef 2, i32 noundef -2147483648)
  %22 = load ptr, ptr %6, align 8
  %23 = load i32, ptr %22, align 4
  %24 = add i32 %23, 2
  store i32 %24, ptr %22, align 4
  %25 = load ptr, ptr %5, align 8
  %26 = load i32, ptr @hf_zbee_zcl_rssi_location_coordinate2, align 4
  %27 = load ptr, ptr %4, align 8
  %28 = load ptr, ptr %6, align 8
  %29 = load i32, ptr %28, align 4
  %30 = call ptr @proto_tree_add_item(ptr noundef %25, i32 noundef %26, ptr noundef %27, i32 noundef %29, i32 noundef 2, i32 noundef -2147483648)
  %31 = load ptr, ptr %6, align 8
  %32 = load i32, ptr %31, align 4
  %33 = add i32 %32, 2
  store i32 %33, ptr %31, align 4
  %34 = load ptr, ptr %5, align 8
  %35 = load i32, ptr @hf_zbee_zcl_rssi_location_coordinate3, align 4
  %36 = load ptr, ptr %4, align 8
  %37 = load ptr, ptr %6, align 8
  %38 = load i32, ptr %37, align 4
  %39 = call ptr @proto_tree_add_item(ptr noundef %34, i32 noundef %35, ptr noundef %36, i32 noundef %38, i32 noundef 2, i32 noundef -2147483648)
  %40 = load ptr, ptr %6, align 8
  %41 = load i32, ptr %40, align 4
  %42 = add i32 %41, 2
  store i32 %42, ptr %40, align 4
  ret void
}